target datalayout = "e-m:e-p270:32:32-p271:32:32-p272:64:64-i64:64-i128:128-f80:128-n8:16:32:64-S128"
target triple = "x86_64-pc-linux-gnu"

; Function Attrs: inlinehint mustprogress nounwind uwtable
define internal noundef i32 @_ZL7cvAlignii(i32 noundef %0, i32 noundef %1) #6 {
  %3 = alloca i32, align 4
  %4 = alloca i32, align 4
  store i32 %0, ptr %3, align 4, !tbaa !27
  store i32 %1, ptr %4, align 4, !tbaa !27
  %5 = load i32, ptr %3, align 4, !tbaa !27
  %6 = load i32, ptr %4, align 4, !tbaa !27
  %7 = add nsw i32 %5, %6
  %8 = sub nsw i32 %7, 1
  %9 = load i32, ptr %4, align 4, !tbaa !27
  %10 = sub nsw i32 0, %9
  %11 = and i32 %8, %10
  ret i32 %11
}

; Function Attrs: inlinehint mustprogress nounwind uwtable
define linkonce_odr noundef nonnull align 8 dereferenceable(8) ptr @_ZSt3maxImERKT_S2_S2_(ptr noundef nonnull align 8 dereferenceable(8) %0, ptr noundef nonnull align 8 dereferenceable(8) %1) #6 comdat {
  %3 = alloca ptr, align 8
  %4 = alloca ptr, align 8
  %5 = alloca ptr, align 8
  store ptr %0, ptr %4, align 8, !tbaa !30
  store ptr %1, ptr %5, align 8, !tbaa !30
  %6 = load ptr, ptr %4, align 8, !tbaa !30
  %7 = load i64, ptr %6, align 8, !tbaa !25
  %8 = load ptr, ptr %5, align 8, !tbaa !30
  %9 = load i64, ptr %8, align 8, !tbaa !25
  %10 = icmp ult i64 %7, %9
  br i1 %10, label %11, label %13

11:                                               ; preds = %2
  %12 = load ptr, ptr %5, align 8, !tbaa !30
  store ptr %12, ptr %3, align 8
  br label %15

13:                                               ; preds = %2
  %14 = load ptr, ptr %4, align 8, !tbaa !30
  store ptr %14, ptr %3, align 8
  br label %15

15:                                               ; preds = %13, %11
  %16 = load ptr, ptr %3, align 8
  ret ptr %16
}

; Function Attrs: mustprogress uwtable
define hidden noundef i32 @_ZN2cv6base6417icvCalcStructSizeEPKci(ptr noundef %0, i32 noundef %1) #0 {
  %3 = alloca ptr, align 8
  %4 = alloca i32, align 4
  %5 = alloca i32, align 4
  %6 = alloca i64, align 8
  %7 = alloca ptr, align 8
  %8 = alloca i64, align 8
  %9 = alloca i64, align 8
  %10 = alloca i64, align 8
  %11 = alloca i64, align 8
  %12 = alloca i64, align 8
  %13 = alloca i64, align 8
  %14 = alloca i64, align 8
  store ptr %0, ptr %3, align 8, !tbaa !3
  store i32 %1, ptr %4, align 4, !tbaa !27
  call void @llvm.lifetime.start.p0(i64 4, ptr %5) #15
  %15 = load ptr, ptr %3, align 8, !tbaa !3
  %16 = load i32, ptr %4, align 4, !tbaa !27
  %17 = call noundef i32 @_ZN2cv2fs12calcElemSizeEPKci(ptr noundef %15, i32 noundef %16)
  store i32 %17, ptr %5, align 4, !tbaa !27
  call void @llvm.lifetime.start.p0(i64 8, ptr %6) #15
  store i64 0, ptr %6, align 8, !tbaa !25
  call void @llvm.lifetime.start.p0(i64 8, ptr %7) #15
  %18 = load ptr, ptr %3, align 8, !tbaa !3
  store ptr %18, ptr %7, align 8, !tbaa !3
  br label %19

19:                                               ; preds = %52, %2
  %20 = load ptr, ptr %7, align 8, !tbaa !3
  %21 = load i8, ptr %20, align 1, !tbaa !16
  %22 = sext i8 %21 to i32
  %23 = icmp ne i32 %22, 0
  br i1 %23, label %25, label %24

24:                                               ; preds = %19
  call void @llvm.lifetime.end.p0(i64 8, ptr %7) #15
  br label %55

25:                                               ; preds = %19
  %26 = load ptr, ptr %7, align 8, !tbaa !3
  %27 = load i8, ptr %26, align 1, !tbaa !16
  %28 = sext i8 %27 to i32
  switch i32 %28, label %50 [
    i32 117, label %29
    i32 99, label %32
    i32 119, label %35
    i32 115, label %38
    i32 105, label %41
    i32 102, label %44
    i32 100, label %47
  ]

29:                                               ; preds = %25
  call void @llvm.lifetime.start.p0(i64 8, ptr %8) #15
  store i64 1, ptr %8, align 8, !tbaa !25
  %30 = call noundef nonnull align 8 dereferenceable(8) ptr @_ZSt3maxImERKT_S2_S2_(ptr noundef nonnull align 8 dereferenceable(8) %6, ptr noundef nonnull align 8 dereferenceable(8) %8)
  %31 = load i64, ptr %30, align 8, !tbaa !25
  store i64 %31, ptr %6, align 8, !tbaa !25
  call void @llvm.lifetime.end.p0(i64 8, ptr %8) #15
  br label %51

32:                                               ; preds = %25
  call void @llvm.lifetime.start.p0(i64 8, ptr %9) #15
  store i64 1, ptr %9, align 8, !tbaa !25
  %33 = call noundef nonnull align 8 dereferenceable(8) ptr @_ZSt3maxImERKT_S2_S2_(ptr noundef nonnull align 8 dereferenceable(8) %6, ptr noundef nonnull align 8 dereferenceable(8) %9)
  %34 = load i64, ptr %33, align 8, !tbaa !25
  store i64 %34, ptr %6, align 8, !tbaa !25
  call void @llvm.lifetime.end.p0(i64 8, ptr %9) #15
  br label %51

35:                                               ; preds = %25
  call void @llvm.lifetime.start.p0(i64 8, ptr %10) #15
  store i64 2, ptr %10, align 8, !tbaa !25
  %36 = call noundef nonnull align 8 dereferenceable(8) ptr @_ZSt3maxImERKT_S2_S2_(ptr noundef nonnull align 8 dereferenceable(8) %6, ptr noundef nonnull align 8 dereferenceable(8) %10)
  %37 = load i64, ptr %36, align 8, !tbaa !25
  store i64 %37, ptr %6, align 8, !tbaa !25
  call void @llvm.lifetime.end.p0(i64 8, ptr %10) #15
  br label %51

38:                                               ; preds = %25
  call void @llvm.lifetime.start.p0(i64 8, ptr %11) #15
  store i64 2, ptr %11, align 8, !tbaa !25
  %39 = call noundef nonnull align 8 dereferenceable(8) ptr @_ZSt3maxImERKT_S2_S2_(ptr noundef nonnull align 8 dereferenceable(8) %6, ptr noundef nonnull align 8 dereferenceable(8) %11)
  %40 = load i64, ptr %39, align 8, !tbaa !25
  store i64 %40, ptr %6, align 8, !tbaa !25
  call void @llvm.lifetime.end.p0(i64 8, ptr %11) #15
  br label %51

41:                                               ; preds = %25
  call void @llvm.lifetime.start.p0(i64 8, ptr %12) #15
  store i64 4, ptr %12, align 8, !tbaa !25
  %42 = call noundef nonnull align 8 dereferenceable(8) ptr @_ZSt3maxImERKT_S2_S2_(ptr noundef nonnull align 8 dereferenceable(8) %6, ptr noundef nonnull align 8 dereferenceable(8) %12)
  %43 = load i64, ptr %42, align 8, !tbaa !25
  store i64 %43, ptr %6, align 8, !tbaa !25
  call void @llvm.lifetime.end.p0(i64 8, ptr %12) #15
  br label %51

44:                                               ; preds = %25
  call void @llvm.lifetime.start.p0(i64 8, ptr %13) #15
  store i64 4, ptr %13, align 8, !tbaa !25
  %45 = call noundef nonnull align 8 dereferenceable(8) ptr @_ZSt3maxImERKT_S2_S2_(ptr noundef nonnull align 8 dereferenceable(8) %6, ptr noundef nonnull align 8 dereferenceable(8) %13)
  %46 = load i64, ptr %45, align 8, !tbaa !25
  store i64 %46, ptr %6, align 8, !tbaa !25
  call void @llvm.lifetime.end.p0(i64 8, ptr %13) #15
  br label %51

47:                                               ; preds = %25
  call void @llvm.lifetime.start.p0(i64 8, ptr %14) #15
  store i64 8, ptr %14, align 8, !tbaa !25
  %48 = call noundef nonnull align 8 dereferenceable(8) ptr @_ZSt3maxImERKT_S2_S2_(ptr noundef nonnull align 8 dereferenceable(8) %6, ptr noundef nonnull align 8 dereferenceable(8) %14)
  %49 = load i64, ptr %48, align 8, !tbaa !25
  store i64 %49, ptr %6, align 8, !tbaa !25
  call void @llvm.lifetime.end.p0(i64 8, ptr %14) #15
  br label %51

50:                                               ; preds = %25
  br label %51

51:                                               ; preds = %50, %47, %44, %41, %38, %35, %32, %29
  br label %52

52:                                               ; preds = %51
  %53 = load ptr, ptr %7, align 8, !tbaa !3
  %54 = getelementptr inbounds nuw i8, ptr %53, i32 1
  store ptr %54, ptr %7, align 8, !tbaa !3
  br label %19, !llvm.loop !29

55:                                               ; preds = %24
  %56 = load i32, ptr %5, align 4, !tbaa !27
  %57 = load i64, ptr %6, align 8, !tbaa !25
  %58 = trunc i64 %57 to i32
  %59 = call noundef i32 @_ZL7cvAlignii(i32 noundef %56, i32 noundef %58)
  store i32 %59, ptr %5, align 4, !tbaa !27
  %60 = load i32, ptr %5, align 4, !tbaa !27
  call void @llvm.lifetime.end.p0(i64 8, ptr %6) #15
  call void @llvm.lifetime.end.p0(i64 4, ptr %5) #15
  ret i32 %60
}