; Function Attrs: mustprogress uwtable
define hidden noundef i32 @_ZN2cv6base6417icvCalcStructSizeEPKci(ptr noundef %0, i32 noundef %1) local_unnamed_addr #0 {
  %3 = tail call noundef i32 @_ZN2cv2fs12calcElemSizeEPKci(ptr noundef %0, i32 noundef %1)
  br label %4

4:                                                ; preds = %19, %2
  %.054 = phi i64 [ 0, %2 ], [ %.1, %19 ]
  %.0 = phi ptr [ %0, %2 ], [ %20, %19 ]
  %5 = load i8, ptr %.0, align 1, !tbaa !19
  switch i8 %5, label %19 [
    i8 0, label %6
    i8 117, label %12
    i8 99, label %13
    i8 119, label %14
    i8 115, label %15
    i8 105, label %16
    i8 102, label %17
    i8 100, label %18
  ]

6:                                                ; preds = %4
  %7 = trunc nuw nsw i64 %.054 to i32
  %8 = add i32 %3, -1
  %9 = add i32 %8, %7
  %10 = sub nsw i32 0, %7
  %11 = and i32 %9, %10
  ret i32 %11

12:                                               ; preds = %4
  %.sroa.speculated36 = tail call i64 @llvm.umax.i64(i64 %.054, i64 1)
  br label %19

13:                                               ; preds = %4
  %.sroa.speculated32 = tail call i64 @llvm.umax.i64(i64 %.054, i64 1)
  br label %19

14:                                               ; preds = %4
  %.sroa.speculated28 = tail call i64 @llvm.umax.i64(i64 %.054, i64 2)
  br label %19

15:                                               ; preds = %4
  %.sroa.speculated24 = tail call i64 @llvm.umax.i64(i64 %.054, i64 2)
  br label %19

16:                                               ; preds = %4
  %.sroa.speculated20 = tail call i64 @llvm.umax.i64(i64 %.054, i64 4)
  br label %19

17:                                               ; preds = %4
  %.sroa.speculated16 = tail call i64 @llvm.umax.i64(i64 %.054, i64 4)
  br label %19

18:                                               ; preds = %4
  br label %19

19:                                               ; preds = %4, %12, %13, %14, %15, %16, %17, %18
  %.1 = phi i64 [ %.054, %4 ], [ 8, %18 ], [ %.sroa.speculated16, %17 ], [ %.sroa.speculated20, %16 ], [ %.sroa.speculated24, %15 ], [ %.sroa.speculated28, %14 ], [ %.sroa.speculated32, %13 ], [ %.sroa.speculated36, %12 ]
  %20 = getelementptr inbounds nuw i8, ptr %.0, i64 1
  br label %4, !llvm.loop !39
}